target datalayout = "e-m:e-p270:32:32-p271:32:32-p272:64:64-i64:64-i128:128-f80:128-n8:16:32:64-S128"
target triple = "x86_64-unknown-linux-gnu"

%"struct.icu_75::CollationSettings" = type <{ %"class.icu_75::SharedObject", i32, i32, ptr, i32, [4 x i8], ptr, i32, [4 x i8], ptr, i32, i32, i32, [384 x i16], [4 x i8] }>
%"class.icu_75::SharedObject" = type { %"class.icu_75::UObject", i32, %"struct.std::atomic", ptr }
%"class.icu_75::UObject" = type { ptr }
%"struct.std::atomic" = type { %"struct.std::__atomic_base" }
%"struct.std::__atomic_base" = type { i32 }

; Function Attrs: mustprogress nounwind uwtable
define noundef i32 @_ZNK6icu_7517CollationSettings9reorderExEj(ptr noundef nonnull align 8 dereferenceable(852) %this, i32 noundef %p) #1 align 2 {
entry:
  %retval = alloca i32, align 4
  %this.addr = alloca ptr, align 8
  %p.addr = alloca i32, align 4
  %q = alloca i32, align 4
  %r = alloca i32, align 4
  %ranges = alloca ptr, align 8
  store ptr %this, ptr %this.addr, align 8
  store i32 %p, ptr %p.addr, align 4
  %this1 = load ptr, ptr %this.addr, align 8
  %0 = load i32, ptr %p.addr, align 4
  %minHighNoReorder = getelementptr inbounds %"struct.icu_75::CollationSettings", ptr %this1, i32 0, i32 4
  %1 = load i32, ptr %minHighNoReorder, align 8
  %cmp = icmp uge i32 %0, %1
  br i1 %cmp, label %if.then, label %if.end

if.then:                                          ; preds = %entry
  %2 = load i32, ptr %p.addr, align 4
  store i32 %2, ptr %retval, align 4
  br label %return

if.end:                                           ; preds = %entry
  %3 = load i32, ptr %p.addr, align 4
  %or = or i32 %3, 65535
  store i32 %or, ptr %q, align 4
  %reorderRanges = getelementptr inbounds %"struct.icu_75::CollationSettings", ptr %this1, i32 0, i32 6
  %4 = load ptr, ptr %reorderRanges, align 8
  store ptr %4, ptr %ranges, align 8
  br label %while.cond

while.cond:                                       ; preds = %while.body, %if.end
  %5 = load i32, ptr %q, align 4
  %6 = load ptr, ptr %ranges, align 8
  %7 = load i32, ptr %6, align 4
  store i32 %7, ptr %r, align 4
  %cmp2 = icmp uge i32 %5, %7
  br i1 %cmp2, label %while.body, label %while.end

while.body:                                       ; preds = %while.cond
  %8 = load ptr, ptr %ranges, align 8
  %incdec.ptr = getelementptr inbounds i32, ptr %8, i32 1
  store ptr %incdec.ptr, ptr %ranges, align 8
  br label %while.cond, !llvm.loop !12

while.end:                                        ; preds = %while.cond
  %9 = load i32, ptr %p.addr, align 4
  %10 = load i32, ptr %r, align 4
  %shl = shl i32 %10, 24
  %add = add i32 %9, %shl
  store i32 %add, ptr %retval, align 4
  br label %return

return:                                           ; preds = %while.end, %if.then
  %11 = load i32, ptr %retval, align 4
  ret i32 %11
}