; Function Attrs: mustprogress nofree norecurse nosync nounwind willreturn memory(read, inaccessiblemem: none) uwtable
define noundef i32 @_ZNK6icu_7517CollationSettings9reorderExEj(ptr nocapture noundef nonnull readonly align 8 dereferenceable(852) %this, i32 noundef %p) local_unnamed_addr #6 align 2 {
entry:
  %minHighNoReorder = getelementptr inbounds i8, ptr %this, i64 40
  %0 = load i32, ptr %minHighNoReorder, align 8
  %cmp.not = icmp ugt i32 %0, %p
  br i1 %cmp.not, label %if.end, label %return

if.end:                                           ; preds = %entry
  %or = or i32 %p, 65535
  %reorderRanges = getelementptr inbounds i8, ptr %this, i64 48
  %1 = load ptr, ptr %reorderRanges, align 8
  br label %while.cond

while.cond:                                       ; preds = %while.cond, %if.end
  %ranges.0 = phi ptr [ %1, %if.end ], [ %incdec.ptr, %while.cond ]
  %2 = load i32, ptr %ranges.0, align 4
  %cmp2.not = icmp ult i32 %or, %2
  %incdec.ptr = getelementptr inbounds i8, ptr %ranges.0, i64 4
  br i1 %cmp2.not, label %while.end, label %while.cond, !llvm.loop !12

while.end:                                        ; preds = %while.cond
  %shl = shl i32 %2, 24
  %add = add i32 %shl, %p
  br label %return

return:                                           ; preds = %entry, %while.end
  %retval.0 = phi i32 [ %add, %while.end ], [ %p, %entry ]
  ret i32 %retval.0
}